target datalayout = "e-m:e-p270:32:32-p271:32:32-p272:64:64-i64:64-i128:128-f80:128-n8:16:32:64-S128"
target triple = "x86_64-pc-linux-gnu"

%struct.Abc_Ntk_t_ = type { i32, i32, ptr, ptr, ptr, ptr, ptr, ptr, ptr, ptr, ptr, ptr, ptr, [11 x i32], i32, i32, i32, i32, ptr, i32, ptr, ptr, i32, i32, i32, double, i32, %struct.Vec_Int_t_, ptr, ptr, ptr, ptr, ptr, float, i32, ptr, ptr, ptr, ptr, ptr, ptr, ptr, ptr, ptr, ptr, ptr, ptr, ptr, ptr, ptr, ptr, ptr, ptr, ptr, ptr, ptr }
%struct.Vec_Int_t_ = type { i32, i32, ptr }
%struct.Vec_Ptr_t_ = type { i32, i32, ptr }
%struct.Abc_Obj_t_ = type { ptr, ptr, i32, i32, %struct.Vec_Int_t_, %struct.Vec_Int_t_, %union.anon, %union.anon.0 }
%union.anon = type { ptr }
%union.anon.0 = type { ptr }

; Function Attrs: nounwind uwtable
define internal i32 @Abc_ObjFaninId1(ptr noundef %0) #0 {
  %2 = alloca ptr, align 8
  store ptr %0, ptr %2, align 8
  %3 = load ptr, ptr %2, align 8
  %4 = getelementptr inbounds %struct.Abc_Obj_t_, ptr %3, i32 0, i32 4
  %5 = getelementptr inbounds %struct.Vec_Int_t_, ptr %4, i32 0, i32 2
  %6 = load ptr, ptr %5, align 8
  %7 = getelementptr inbounds i32, ptr %6, i64 1
  %8 = load i32, ptr %7, align 4
  ret i32 %8
}

; Function Attrs: nounwind uwtable
define internal i32 @Abc_ObjFaninId0(ptr noundef %0) #0 {
  %2 = alloca ptr, align 8
  store ptr %0, ptr %2, align 8
  %3 = load ptr, ptr %2, align 8
  %4 = getelementptr inbounds %struct.Abc_Obj_t_, ptr %3, i32 0, i32 4
  %5 = getelementptr inbounds %struct.Vec_Int_t_, ptr %4, i32 0, i32 2
  %6 = load ptr, ptr %5, align 8
  %7 = getelementptr inbounds i32, ptr %6, i64 0
  %8 = load i32, ptr %7, align 4
  ret i32 %8
}

; Function Attrs: nounwind uwtable
define internal i32 @Abc_ObjFaninNum(ptr noundef %0) #0 {
  %2 = alloca ptr, align 8
  store ptr %0, ptr %2, align 8
  %3 = load ptr, ptr %2, align 8
  %4 = getelementptr inbounds %struct.Abc_Obj_t_, ptr %3, i32 0, i32 4
  %5 = getelementptr inbounds %struct.Vec_Int_t_, ptr %4, i32 0, i32 1
  %6 = load i32, ptr %5, align 4
  ret i32 %6
}

; Function Attrs: nounwind uwtable
define internal ptr @Abc_ObjFanin1(ptr noundef %0) #0 {
  %2 = alloca ptr, align 8
  store ptr %0, ptr %2, align 8
  %3 = load ptr, ptr %2, align 8
  %4 = getelementptr inbounds %struct.Abc_Obj_t_, ptr %3, i32 0, i32 0
  %5 = load ptr, ptr %4, align 8
  %6 = getelementptr inbounds %struct.Abc_Ntk_t_, ptr %5, i32 0, i32 5
  %7 = load ptr, ptr %6, align 8
  %8 = getelementptr inbounds %struct.Vec_Ptr_t_, ptr %7, i32 0, i32 2
  %9 = load ptr, ptr %8, align 8
  %10 = load ptr, ptr %2, align 8
  %11 = getelementptr inbounds %struct.Abc_Obj_t_, ptr %10, i32 0, i32 4
  %12 = getelementptr inbounds %struct.Vec_Int_t_, ptr %11, i32 0, i32 2
  %13 = load ptr, ptr %12, align 8
  %14 = getelementptr inbounds i32, ptr %13, i64 1
  %15 = load i32, ptr %14, align 4
  %16 = sext i32 %15 to i64
  %17 = getelementptr inbounds ptr, ptr %9, i64 %16
  %18 = load ptr, ptr %17, align 8
  ret ptr %18
}

; Function Attrs: nounwind uwtable
define internal ptr @Abc_ObjFanin0(ptr noundef %0) #0 {
  %2 = alloca ptr, align 8
  store ptr %0, ptr %2, align 8
  %3 = load ptr, ptr %2, align 8
  %4 = getelementptr inbounds %struct.Abc_Obj_t_, ptr %3, i32 0, i32 0
  %5 = load ptr, ptr %4, align 8
  %6 = getelementptr inbounds %struct.Abc_Ntk_t_, ptr %5, i32 0, i32 5
  %7 = load ptr, ptr %6, align 8
  %8 = getelementptr inbounds %struct.Vec_Ptr_t_, ptr %7, i32 0, i32 2
  %9 = load ptr, ptr %8, align 8
  %10 = load ptr, ptr %2, align 8
  %11 = getelementptr inbounds %struct.Abc_Obj_t_, ptr %10, i32 0, i32 4
  %12 = getelementptr inbounds %struct.Vec_Int_t_, ptr %11, i32 0, i32 2
  %13 = load ptr, ptr %12, align 8
  %14 = getelementptr inbounds i32, ptr %13, i64 0
  %15 = load i32, ptr %14, align 4
  %16 = sext i32 %15 to i64
  %17 = getelementptr inbounds ptr, ptr %9, i64 %16
  %18 = load ptr, ptr %17, align 8
  ret ptr %18
}

; Function Attrs: nounwind uwtable
define internal i32 @Abc_ObjFaninC1(ptr noundef %0) #0 {
  %2 = alloca ptr, align 8
  store ptr %0, ptr %2, align 8
  %3 = load ptr, ptr %2, align 8
  %4 = getelementptr inbounds %struct.Abc_Obj_t_, ptr %3, i32 0, i32 3
  %5 = load i32, ptr %4, align 4
  %6 = lshr i32 %5, 11
  %7 = and i32 %6, 1
  ret i32 %7
}

; Function Attrs: nounwind uwtable
define internal i32 @Abc_ObjFaninC0(ptr noundef %0) #0 {
  %2 = alloca ptr, align 8
  store ptr %0, ptr %2, align 8
  %3 = load ptr, ptr %2, align 8
  %4 = getelementptr inbounds %struct.Abc_Obj_t_, ptr %3, i32 0, i32 3
  %5 = load i32, ptr %4, align 4
  %6 = lshr i32 %5, 10
  %7 = and i32 %6, 1
  ret i32 %7
}

; Function Attrs: nounwind uwtable
define internal i32 @Abc_AigNodeIsAnd(ptr noundef %0) #0 {
  %2 = alloca ptr, align 8
  store ptr %0, ptr %2, align 8
  %3 = load ptr, ptr %2, align 8
  %4 = call i32 @Abc_ObjFaninNum(ptr noundef %3)
  %5 = icmp eq i32 %4, 2
  %6 = zext i1 %5 to i32
  ret i32 %6
}

; Function Attrs: nounwind uwtable
define i32 @Abc_NodeIsExorType(ptr noundef %0) #0 {
  %2 = alloca i32, align 4
  %3 = alloca ptr, align 8
  %4 = alloca ptr, align 8
  %5 = alloca ptr, align 8
  store ptr %0, ptr %3, align 8
  %6 = load ptr, ptr %3, align 8
  %7 = call i32 @Abc_AigNodeIsAnd(ptr noundef %6)
  %8 = icmp ne i32 %7, 0
  br i1 %8, label %10, label %9

9:                                                ; preds = %1
  store i32 0, ptr %2, align 4
  br label %59

10:                                               ; preds = %1
  %11 = load ptr, ptr %3, align 8
  %12 = call i32 @Abc_ObjFaninC0(ptr noundef %11)
  %13 = icmp ne i32 %12, 0
  br i1 %13, label %14, label %18

14:                                               ; preds = %10
  %15 = load ptr, ptr %3, align 8
  %16 = call i32 @Abc_ObjFaninC1(ptr noundef %15)
  %17 = icmp ne i32 %16, 0
  br i1 %17, label %19, label %18

18:                                               ; preds = %14, %10
  store i32 0, ptr %2, align 4
  br label %59

19:                                               ; preds = %14
  %20 = load ptr, ptr %3, align 8
  %21 = call ptr @Abc_ObjFanin0(ptr noundef %20)
  store ptr %21, ptr %4, align 8
  %22 = load ptr, ptr %3, align 8
  %23 = call ptr @Abc_ObjFanin1(ptr noundef %22)
  store ptr %23, ptr %5, align 8
  %24 = load ptr, ptr %4, align 8
  %25 = call i32 @Abc_ObjFaninNum(ptr noundef %24)
  %26 = icmp ne i32 %25, 2
  br i1 %26, label %31, label %27

27:                                               ; preds = %19
  %28 = load ptr, ptr %5, align 8
  %29 = call i32 @Abc_ObjFaninNum(ptr noundef %28)
  %30 = icmp ne i32 %29, 2
  br i1 %30, label %31, label %32

31:                                               ; preds = %27, %19
  store i32 0, ptr %2, align 4
  br label %59

32:                                               ; preds = %27
  %33 = load ptr, ptr %4, align 8
  %34 = call i32 @Abc_ObjFaninId0(ptr noundef %33)
  %35 = load ptr, ptr %5, align 8
  %36 = call i32 @Abc_ObjFaninId0(ptr noundef %35)
  %37 = icmp ne i32 %34, %36
  br i1 %37, label %44, label %38

38:                                               ; preds = %32
  %39 = load ptr, ptr %4, align 8
  %40 = call i32 @Abc_ObjFaninId1(ptr noundef %39)
  %41 = load ptr, ptr %5, align 8
  %42 = call i32 @Abc_ObjFaninId1(ptr noundef %41)
  %43 = icmp ne i32 %40, %42
  br i1 %43, label %44, label %45

44:                                               ; preds = %38, %32
  store i32 0, ptr %2, align 4
  br label %59

45:                                               ; preds = %38
  %46 = load ptr, ptr %4, align 8
  %47 = call i32 @Abc_ObjFaninC0(ptr noundef %46)
  %48 = load ptr, ptr %5, align 8
  %49 = call i32 @Abc_ObjFaninC0(ptr noundef %48)
  %50 = icmp eq i32 %47, %49
  br i1 %50, label %57, label %51

51:                                               ; preds = %45
  %52 = load ptr, ptr %4, align 8
  %53 = call i32 @Abc_ObjFaninC1(ptr noundef %52)
  %54 = load ptr, ptr %5, align 8
  %55 = call i32 @Abc_ObjFaninC1(ptr noundef %54)
  %56 = icmp eq i32 %53, %55
  br i1 %56, label %57, label %58

57:                                               ; preds = %51, %45
  store i32 0, ptr %2, align 4
  br label %59

58:                                               ; preds = %51
  store i32 1, ptr %2, align 4
  br label %59

59:                                               ; preds = %58, %57, %44, %31, %18, %9
  %60 = load i32, ptr %2, align 4
  ret i32 %60
}