; Function Attrs: mustprogress nofree norecurse nosync nounwind willreturn memory(read, inaccessiblemem: none) uwtable
define range(i32 0, 2) i32 @Abc_NodeIsExorType(ptr noundef readonly captures(none) %0) local_unnamed_addr #4 {
  %2 = getelementptr i8, ptr %0, i64 28
  %.val22 = load i32, ptr %2, align 4
  %.not = icmp eq i32 %.val22, 2
  br i1 %.not, label %3, label %34

3:                                                ; preds = %1
  %4 = getelementptr i8, ptr %0, i64 20
  %.val25 = load i32, ptr %4, align 4
  %5 = and i32 %.val25, 3072
  %or.cond.not = icmp eq i32 %5, 3072
  br i1 %or.cond.not, label %6, label %34

6:                                                ; preds = %3
  %.val29 = load ptr, ptr %0, align 8
  %7 = getelementptr i8, ptr %0, i64 32
  %.val30 = load ptr, ptr %7, align 8
  %8 = getelementptr i8, ptr %.val29, i64 32
  %.val29.val = load ptr, ptr %8, align 8
  %.val30.val = load i32, ptr %.val30, align 4
  %9 = getelementptr i8, ptr %.val29.val, i64 8
  %.val29.val.val = load ptr, ptr %9, align 8
  %10 = sext i32 %.val30.val to i64
  %11 = getelementptr inbounds ptr, ptr %.val29.val.val, i64 %10
  %12 = load ptr, ptr %11, align 8
  %13 = getelementptr i8, ptr %.val30, i64 4
  %.val32.val = load i32, ptr %13, align 4
  %14 = sext i32 %.val32.val to i64
  %15 = getelementptr inbounds ptr, ptr %.val29.val.val, i64 %14
  %16 = load ptr, ptr %15, align 8
  %17 = getelementptr i8, ptr %12, i64 28
  %.val21 = load i32, ptr %17, align 4
  %.not17 = icmp eq i32 %.val21, 2
  br i1 %.not17, label %18, label %34

18:                                               ; preds = %6
  %19 = getelementptr i8, ptr %16, i64 28
  %.val = load i32, ptr %19, align 4
  %.not18 = icmp eq i32 %.val, 2
  br i1 %.not18, label %20, label %34

20:                                               ; preds = %18
  %21 = getelementptr i8, ptr %12, i64 32
  %.val34 = load ptr, ptr %21, align 8
  %.val34.val = load i32, ptr %.val34, align 4
  %22 = getelementptr i8, ptr %16, i64 32
  %.val33 = load ptr, ptr %22, align 8
  %.val33.val = load i32, ptr %.val33, align 4
  %.not19 = icmp eq i32 %.val34.val, %.val33.val
  br i1 %.not19, label %23, label %34

23:                                               ; preds = %20
  %24 = getelementptr i8, ptr %.val34, i64 4
  %.val35.val = load i32, ptr %24, align 4
  %25 = getelementptr i8, ptr %.val33, i64 4
  %.val36.val = load i32, ptr %25, align 4
  %.not20 = icmp eq i32 %.val35.val, %.val36.val
  br i1 %.not20, label %26, label %34

26:                                               ; preds = %23
  %27 = getelementptr i8, ptr %12, i64 20
  %.val24 = load i32, ptr %27, align 4
  %28 = getelementptr i8, ptr %16, i64 20
  %.val23 = load i32, ptr %28, align 4
  %29 = xor i32 %.val23, %.val24
  %30 = and i32 %29, 1024
  %31 = icmp eq i32 %30, 0
  br i1 %31, label %34, label %32

32:                                               ; preds = %26
  %33 = lshr i32 %29, 11
  %.lobit = and i32 %33, 1
  br label %34

34:                                               ; preds = %32, %26, %20, %23, %6, %18, %3, %1
  %.0 = phi i32 [ 0, %1 ], [ 0, %3 ], [ 0, %18 ], [ 0, %6 ], [ 0, %23 ], [ 0, %20 ], [ 0, %26 ], [ %.lobit, %32 ]
  ret i32 %.0
}